; ModuleID = '28/319.c'
source_filename = "28/319.c"
target datalayout = "e-m:e-p270:32:32-p271:32:32-p272:64:64-i64:64-f80:128-n8:16:32:64-S128"
target triple = "x86_64-pc-linux-gnu"

@.str = private unnamed_addr constant [4 x i8] c"%d,\00", align 1
@.str.1 = private unnamed_addr constant [3 x i8] c"%d\00", align 1

; Function Attrs: noinline nounwind uwtable
define dso_local void @main() #0 {
  %1 = alloca [1000000 x i8], align 16
  %2 = alloca i32, align 4
  %3 = getelementptr inbounds [1000000 x i8], [1000000 x i8]* %1, i64 0, i64 0
  %4 = call i32 (i8*, ...) bitcast (i32 (...)* @gets to i32 (i8*, ...)*)(i8* %3)
  %5 = getelementptr inbounds [1000000 x i8], [1000000 x i8]* %1, i64 0, i64 0
  %6 = call i64 @strlen(i8* %5) #3
  %7 = trunc i64 %6 to i32
  store i32 %7, i32* %2, align 4
  %8 = getelementptr inbounds [1000000 x i8], [1000000 x i8]* %1, i64 0, i64 0
  %9 = load i32, i32* %2, align 4
  call void @f(i8* %8, i32 %9)
  ret void
}

declare dso_local i32 @gets(...) #1

; Function Attrs: nounwind readonly
declare dso_local i64 @strlen(i8*) #2

; Function Attrs: noinline nounwind uwtable
define dso_local void @f(i8* %0, i32 %1) #0 {
  %3 = alloca i8*, align 8
  %4 = alloca i32, align 4
  %5 = alloca i32, align 4
  %6 = alloca i32, align 4
  %7 = alloca i32, align 4
  store i8* %0, i8** %3, align 8
  store i32 %1, i32* %4, align 4
  store i32 0, i32* %7, align 4
  store i32 0, i32* %6, align 4
  store i32 0, i32* %5, align 4
  br label %8

8:                                                ; preds = %31, %2
  %9 = load i32, i32* %5, align 4
  %10 = load i32, i32* %4, align 4
  %11 = icmp slt i32 %9, %10
  br i1 %11, label %12, label %34

12:                                               ; preds = %8
  %13 = load i8*, i8** %3, align 8
  %14 = load i32, i32* %5, align 4
  %15 = sext i32 %14 to i64
  %16 = getelementptr inbounds i8, i8* %13, i64 %15
  %17 = load i8, i8* %16, align 1
  %18 = sext i8 %17 to i32
  %19 = icmp ne i32 %18, 32
  br i1 %19, label %20, label %23

20:                                               ; preds = %12
  %21 = load i32, i32* %6, align 4
  %22 = add nsw i32 %21, 1
  store i32 %22, i32* %6, align 4
  br label %30

23:                                               ; preds = %12
  %24 = load i32, i32* %6, align 4
  %25 = icmp ne i32 %24, 0
  br i1 %25, label %26, label %29

26:                                               ; preds = %23
  %27 = load i32, i32* %6, align 4
  %28 = call i32 (i8*, ...) @printf(i8* getelementptr inbounds ([4 x i8], [4 x i8]* @.str, i64 0, i64 0), i32 %27)
  br label %29

29:                                               ; preds = %26, %23
  store i32 0, i32* %6, align 4
  br label %30

30:                                               ; preds = %29, %20
  br label %31

31:                                               ; preds = %30
  %32 = load i32, i32* %5, align 4
  %33 = add nsw i32 %32, 1
  store i32 %33, i32* %5, align 4
  br label %8

34:                                               ; preds = %8
  %35 = load i32, i32* %4, align 4
  %36 = sub nsw i32 %35, 1
  store i32 %36, i32* %5, align 4
  br label %37

37:                                               ; preds = %53, %34
  %38 = load i32, i32* %5, align 4
  %39 = icmp sgt i32 %38, -1
  br i1 %39, label %40, label %56

40:                                               ; preds = %37
  %41 = load i8*, i8** %3, align 8
  %42 = load i32, i32* %5, align 4
  %43 = sext i32 %42 to i64
  %44 = getelementptr inbounds i8, i8* %41, i64 %43
  %45 = load i8, i8* %44, align 1
  %46 = sext i8 %45 to i32
  %47 = icmp ne i32 %46, 32
  br i1 %47, label %48, label %51

48:                                               ; preds = %40
  %49 = load i32, i32* %7, align 4
  %50 = add nsw i32 %49, 1
  store i32 %50, i32* %7, align 4
  br label %52

51:                                               ; preds = %40
  br label %56

52:                                               ; preds = %48
  br label %53

53:                                               ; preds = %52
  %54 = load i32, i32* %5, align 4
  %55 = add nsw i32 %54, -1
  store i32 %55, i32* %5, align 4
  br label %37

56:                                               ; preds = %51, %37
  %57 = load i32, i32* %7, align 4
  %58 = icmp ne i32 %57, 0
  br i1 %58, label %59, label %62

59:                                               ; preds = %56
  %60 = load i32, i32* %7, align 4
  %61 = call i32 (i8*, ...) @printf(i8* getelementptr inbounds ([3 x i8], [3 x i8]* @.str.1, i64 0, i64 0), i32 %60)
  br label %62

62:                                               ; preds = %59, %56
  ret void
}

declare dso_local i32 @printf(i8*, ...) #1


!llvm.module.flags = !{!0}
!llvm.ident = !{!1}

!0 = !{i32 1, !"wchar_size", i32 4}
!1 = !{!"clang version 10.0.0-4ubuntu1 "}
